target datalayout = "e-m:e-p270:32:32-p271:32:32-p272:64:64-i64:64-i128:128-f80:128-n8:16:32:64-S128"
target triple = "x86_64-pc-linux-gnu"

%union.anon = type { i32 }
%struct.BIT_DStream_t = type { i64, i32, ptr, ptr }

@__const.MEM_isLittleEndian.one = private unnamed_addr constant %union.anon { i32 1 }, align 4

; Function Attrs: inlinehint nounwind uwtable
define internal i64 @MEM_read64(ptr noundef %0) #2 {
  %2 = alloca ptr, align 8
  %3 = alloca i64, align 8
  store ptr %0, ptr %2, align 8, !tbaa !3
  call void @llvm.lifetime.start.p0(i64 8, ptr %3) #9
  %4 = load ptr, ptr %2, align 8, !tbaa !3
  call void @llvm.memcpy.p0.p0.i64(ptr align 8 %3, ptr align 1 %4, i64 8, i1 false)
  %5 = load i64, ptr %3, align 8, !tbaa !7
  call void @llvm.lifetime.end.p0(i64 8, ptr %3) #9
  ret i64 %5
}

; Function Attrs: inlinehint nounwind uwtable
define internal i32 @MEM_read32(ptr noundef %0) #2 {
  %2 = alloca ptr, align 8
  %3 = alloca i32, align 4
  store ptr %0, ptr %2, align 8, !tbaa !3
  call void @llvm.lifetime.start.p0(i64 4, ptr %3) #9
  %4 = load ptr, ptr %2, align 8, !tbaa !3
  call void @llvm.memcpy.p0.p0.i64(ptr align 4 %3, ptr align 1 %4, i64 4, i1 false)
  %5 = load i32, ptr %3, align 4, !tbaa !15
  call void @llvm.lifetime.end.p0(i64 4, ptr %3) #9
  ret i32 %5
}

; Function Attrs: inlinehint nounwind uwtable
define internal i32 @MEM_isLittleEndian() #2 {
  %1 = alloca %union.anon, align 4
  call void @llvm.lifetime.start.p0(i64 4, ptr %1) #9
  call void @llvm.memcpy.p0.p0.i64(ptr align 4 %1, ptr align 4 @__const.MEM_isLittleEndian.one, i64 4, i1 false)
  %2 = getelementptr inbounds [4 x i8], ptr %1, i64 0, i64 0
  %3 = load i8, ptr %2, align 4, !tbaa !19
  %4 = zext i8 %3 to i32
  call void @llvm.lifetime.end.p0(i64 4, ptr %1) #9
  ret i32 %4
}

; Function Attrs: inlinehint nounwind uwtable
define internal i64 @MEM_readLE64(ptr noundef %0) #2 {
  %2 = alloca i64, align 8
  %3 = alloca ptr, align 8
  %4 = alloca ptr, align 8
  store ptr %0, ptr %3, align 8, !tbaa !3
  %5 = call i32 @MEM_isLittleEndian()
  %6 = icmp ne i32 %5, 0
  br i1 %6, label %7, label %10

7:                                                ; preds = %1
  %8 = load ptr, ptr %3, align 8, !tbaa !3
  %9 = call i64 @MEM_read64(ptr noundef %8)
  store i64 %9, ptr %2, align 8
  br label %58

10:                                               ; preds = %1
  call void @llvm.lifetime.start.p0(i64 8, ptr %4) #9
  %11 = load ptr, ptr %3, align 8, !tbaa !3
  store ptr %11, ptr %4, align 8, !tbaa !13
  %12 = load ptr, ptr %4, align 8, !tbaa !13
  %13 = getelementptr inbounds i8, ptr %12, i64 0
  %14 = load i8, ptr %13, align 1, !tbaa !19
  %15 = zext i8 %14 to i64
  %16 = load ptr, ptr %4, align 8, !tbaa !13
  %17 = getelementptr inbounds i8, ptr %16, i64 1
  %18 = load i8, ptr %17, align 1, !tbaa !19
  %19 = zext i8 %18 to i64
  %20 = shl i64 %19, 8
  %21 = add i64 %15, %20
  %22 = load ptr, ptr %4, align 8, !tbaa !13
  %23 = getelementptr inbounds i8, ptr %22, i64 2
  %24 = load i8, ptr %23, align 1, !tbaa !19
  %25 = zext i8 %24 to i64
  %26 = shl i64 %25, 16
  %27 = add i64 %21, %26
  %28 = load ptr, ptr %4, align 8, !tbaa !13
  %29 = getelementptr inbounds i8, ptr %28, i64 3
  %30 = load i8, ptr %29, align 1, !tbaa !19
  %31 = zext i8 %30 to i64
  %32 = shl i64 %31, 24
  %33 = add i64 %27, %32
  %34 = load ptr, ptr %4, align 8, !tbaa !13
  %35 = getelementptr inbounds i8, ptr %34, i64 4
  %36 = load i8, ptr %35, align 1, !tbaa !19
  %37 = zext i8 %36 to i64
  %38 = shl i64 %37, 32
  %39 = add i64 %33, %38
  %40 = load ptr, ptr %4, align 8, !tbaa !13
  %41 = getelementptr inbounds i8, ptr %40, i64 5
  %42 = load i8, ptr %41, align 1, !tbaa !19
  %43 = zext i8 %42 to i64
  %44 = shl i64 %43, 40
  %45 = add i64 %39, %44
  %46 = load ptr, ptr %4, align 8, !tbaa !13
  %47 = getelementptr inbounds i8, ptr %46, i64 6
  %48 = load i8, ptr %47, align 1, !tbaa !19
  %49 = zext i8 %48 to i64
  %50 = shl i64 %49, 48
  %51 = add i64 %45, %50
  %52 = load ptr, ptr %4, align 8, !tbaa !13
  %53 = getelementptr inbounds i8, ptr %52, i64 7
  %54 = load i8, ptr %53, align 1, !tbaa !19
  %55 = zext i8 %54 to i64
  %56 = shl i64 %55, 56
  %57 = add i64 %51, %56
  store i64 %57, ptr %2, align 8
  call void @llvm.lifetime.end.p0(i64 8, ptr %4) #9
  br label %58

58:                                               ; preds = %10, %7
  %59 = load i64, ptr %2, align 8
  ret i64 %59
}

; Function Attrs: inlinehint nounwind uwtable
define internal i32 @MEM_readLE32(ptr noundef %0) #2 {
  %2 = alloca i32, align 4
  %3 = alloca ptr, align 8
  %4 = alloca ptr, align 8
  store ptr %0, ptr %3, align 8, !tbaa !3
  %5 = call i32 @MEM_isLittleEndian()
  %6 = icmp ne i32 %5, 0
  br i1 %6, label %7, label %10

7:                                                ; preds = %1
  %8 = load ptr, ptr %3, align 8, !tbaa !3
  %9 = call i32 @MEM_read32(ptr noundef %8)
  store i32 %9, ptr %2, align 4
  br label %34

10:                                               ; preds = %1
  call void @llvm.lifetime.start.p0(i64 8, ptr %4) #9
  %11 = load ptr, ptr %3, align 8, !tbaa !3
  store ptr %11, ptr %4, align 8, !tbaa !13
  %12 = load ptr, ptr %4, align 8, !tbaa !13
  %13 = getelementptr inbounds i8, ptr %12, i64 0
  %14 = load i8, ptr %13, align 1, !tbaa !19
  %15 = zext i8 %14 to i32
  %16 = load ptr, ptr %4, align 8, !tbaa !13
  %17 = getelementptr inbounds i8, ptr %16, i64 1
  %18 = load i8, ptr %17, align 1, !tbaa !19
  %19 = zext i8 %18 to i32
  %20 = shl i32 %19, 8
  %21 = add i32 %15, %20
  %22 = load ptr, ptr %4, align 8, !tbaa !13
  %23 = getelementptr inbounds i8, ptr %22, i64 2
  %24 = load i8, ptr %23, align 1, !tbaa !19
  %25 = zext i8 %24 to i32
  %26 = shl i32 %25, 16
  %27 = add i32 %21, %26
  %28 = load ptr, ptr %4, align 8, !tbaa !13
  %29 = getelementptr inbounds i8, ptr %28, i64 3
  %30 = load i8, ptr %29, align 1, !tbaa !19
  %31 = zext i8 %30 to i32
  %32 = shl i32 %31, 24
  %33 = add i32 %27, %32
  store i32 %33, ptr %2, align 4
  call void @llvm.lifetime.end.p0(i64 8, ptr %4) #9
  br label %34

34:                                               ; preds = %10, %7
  %35 = load i32, ptr %2, align 4
  ret i32 %35
}

; Function Attrs: inlinehint nounwind uwtable
define internal i32 @MEM_32bits() #2 {
  ret i32 0
}

; Function Attrs: inlinehint nounwind uwtable
define internal i32 @BIT_highbit32(i32 noundef %0) #2 {
  %2 = alloca i32, align 4
  store i32 %0, ptr %2, align 4, !tbaa !15
  %3 = load i32, ptr %2, align 4, !tbaa !15
  %4 = call i32 @llvm.ctlz.i32(i32 %3, i1 true)
  %5 = xor i32 %4, 31
  ret i32 %5
}

; Function Attrs: inlinehint nounwind uwtable
define internal i64 @MEM_readLEST(ptr noundef %0) #2 {
  %2 = alloca i64, align 8
  %3 = alloca ptr, align 8
  store ptr %0, ptr %3, align 8, !tbaa !3
  %4 = call i32 @MEM_32bits()
  %5 = icmp ne i32 %4, 0
  br i1 %5, label %6, label %10

6:                                                ; preds = %1
  %7 = load ptr, ptr %3, align 8, !tbaa !3
  %8 = call i32 @MEM_readLE32(ptr noundef %7)
  %9 = zext i32 %8 to i64
  store i64 %9, ptr %2, align 8
  br label %13

10:                                               ; preds = %1
  %11 = load ptr, ptr %3, align 8, !tbaa !3
  %12 = call i64 @MEM_readLE64(ptr noundef %11)
  store i64 %12, ptr %2, align 8
  br label %13

13:                                               ; preds = %10, %6
  %14 = load i64, ptr %2, align 8
  ret i64 %14
}

; Function Attrs: inlinehint nounwind uwtable
define internal i64 @BIT_initDStream(ptr noundef %0, ptr noundef %1, i64 noundef %2) #2 {
  %4 = alloca i64, align 8
  %5 = alloca ptr, align 8
  %6 = alloca ptr, align 8
  %7 = alloca i64, align 8
  %8 = alloca i32, align 4
  %9 = alloca i32, align 4
  %10 = alloca i32, align 4
  store ptr %0, ptr %5, align 8, !tbaa !3
  store ptr %1, ptr %6, align 8, !tbaa !3
  store i64 %2, ptr %7, align 8, !tbaa !7
  %11 = load i64, ptr %7, align 8, !tbaa !7
  %12 = icmp ult i64 %11, 1
  br i1 %12, label %13, label %15

13:                                               ; preds = %3
  %14 = load ptr, ptr %5, align 8, !tbaa !3
  call void @llvm.memset.p0.i64(ptr align 8 %14, i8 0, i64 32, i1 false)
  store i64 -72, ptr %4, align 8
  br label %171

15:                                               ; preds = %3
  %16 = load i64, ptr %7, align 8, !tbaa !7
  %17 = icmp uge i64 %16, 8
  br i1 %17, label %18, label %52

18:                                               ; preds = %15
  call void @llvm.lifetime.start.p0(i64 4, ptr %8) #9
  %19 = load ptr, ptr %6, align 8, !tbaa !3
  %20 = load ptr, ptr %5, align 8, !tbaa !3
  %21 = getelementptr inbounds nuw %struct.BIT_DStream_t, ptr %20, i32 0, i32 3
  store ptr %19, ptr %21, align 8, !tbaa !76
  %22 = load ptr, ptr %6, align 8, !tbaa !3
  %23 = load i64, ptr %7, align 8, !tbaa !7
  %24 = getelementptr inbounds nuw i8, ptr %22, i64 %23
  %25 = getelementptr inbounds i8, ptr %24, i64 -8
  %26 = load ptr, ptr %5, align 8, !tbaa !3
  %27 = getelementptr inbounds nuw %struct.BIT_DStream_t, ptr %26, i32 0, i32 2
  store ptr %25, ptr %27, align 8, !tbaa !77
  %28 = load ptr, ptr %5, align 8, !tbaa !3
  %29 = getelementptr inbounds nuw %struct.BIT_DStream_t, ptr %28, i32 0, i32 2
  %30 = load ptr, ptr %29, align 8, !tbaa !77
  %31 = call i64 @MEM_readLEST(ptr noundef %30)
  %32 = load ptr, ptr %5, align 8, !tbaa !3
  %33 = getelementptr inbounds nuw %struct.BIT_DStream_t, ptr %32, i32 0, i32 0
  store i64 %31, ptr %33, align 8, !tbaa !78
  %34 = load ptr, ptr %6, align 8, !tbaa !3
  %35 = load i64, ptr %7, align 8, !tbaa !7
  %36 = sub i64 %35, 1
  %37 = getelementptr inbounds nuw i8, ptr %34, i64 %36
  %38 = load i8, ptr %37, align 1, !tbaa !19
  %39 = zext i8 %38 to i32
  store i32 %39, ptr %8, align 4, !tbaa !15
  %40 = load i32, ptr %8, align 4, !tbaa !15
  %41 = icmp eq i32 %40, 0
  br i1 %41, label %42, label %43

42:                                               ; preds = %18
  store i64 -1, ptr %4, align 8
  store i32 1, ptr %9, align 4
  br label %49

43:                                               ; preds = %18
  %44 = load i32, ptr %8, align 4, !tbaa !15
  %45 = call i32 @BIT_highbit32(i32 noundef %44)
  %46 = sub i32 8, %45
  %47 = load ptr, ptr %5, align 8, !tbaa !3
  %48 = getelementptr inbounds nuw %struct.BIT_DStream_t, ptr %47, i32 0, i32 1
  store i32 %46, ptr %48, align 8, !tbaa !79
  store i32 0, ptr %9, align 4
  br label %49

49:                                               ; preds = %43, %42
  call void @llvm.lifetime.end.p0(i64 4, ptr %8) #9
  %50 = load i32, ptr %9, align 4
  switch i32 %50, label %173 [
    i32 0, label %51
    i32 1, label %171
  ]

51:                                               ; preds = %49
  br label %169

52:                                               ; preds = %15
  call void @llvm.lifetime.start.p0(i64 4, ptr %10) #9
  %53 = load ptr, ptr %6, align 8, !tbaa !3
  %54 = load ptr, ptr %5, align 8, !tbaa !3
  %55 = getelementptr inbounds nuw %struct.BIT_DStream_t, ptr %54, i32 0, i32 3
  store ptr %53, ptr %55, align 8, !tbaa !76
  %56 = load ptr, ptr %5, align 8, !tbaa !3
  %57 = getelementptr inbounds nuw %struct.BIT_DStream_t, ptr %56, i32 0, i32 3
  %58 = load ptr, ptr %57, align 8, !tbaa !76
  %59 = load ptr, ptr %5, align 8, !tbaa !3
  %60 = getelementptr inbounds nuw %struct.BIT_DStream_t, ptr %59, i32 0, i32 2
  store ptr %58, ptr %60, align 8, !tbaa !77
  %61 = load ptr, ptr %5, align 8, !tbaa !3
  %62 = getelementptr inbounds nuw %struct.BIT_DStream_t, ptr %61, i32 0, i32 3
  %63 = load ptr, ptr %62, align 8, !tbaa !76
  %64 = load i8, ptr %63, align 1, !tbaa !19
  %65 = zext i8 %64 to i64
  %66 = load ptr, ptr %5, align 8, !tbaa !3
  %67 = getelementptr inbounds nuw %struct.BIT_DStream_t, ptr %66, i32 0, i32 0
  store i64 %65, ptr %67, align 8, !tbaa !78
  %68 = load i64, ptr %7, align 8, !tbaa !7
  switch i64 %68, label %141 [
    i64 7, label %69
    i64 6, label %81
    i64 5, label %93
    i64 4, label %105
    i64 3, label %117
    i64 2, label %129
  ]

69:                                               ; preds = %52
  %70 = load ptr, ptr %5, align 8, !tbaa !3
  %71 = getelementptr inbounds nuw %struct.BIT_DStream_t, ptr %70, i32 0, i32 3
  %72 = load ptr, ptr %71, align 8, !tbaa !76
  %73 = getelementptr inbounds i8, ptr %72, i64 6
  %74 = load i8, ptr %73, align 1, !tbaa !19
  %75 = zext i8 %74 to i64
  %76 = shl i64 %75, 48
  %77 = load ptr, ptr %5, align 8, !tbaa !3
  %78 = getelementptr inbounds nuw %struct.BIT_DStream_t, ptr %77, i32 0, i32 0
  %79 = load i64, ptr %78, align 8, !tbaa !78
  %80 = add i64 %79, %76
  store i64 %80, ptr %78, align 8, !tbaa !78
  br label %81

81:                                               ; preds = %52, %69
  %82 = load ptr, ptr %5, align 8, !tbaa !3
  %83 = getelementptr inbounds nuw %struct.BIT_DStream_t, ptr %82, i32 0, i32 3
  %84 = load ptr, ptr %83, align 8, !tbaa !76
  %85 = getelementptr inbounds i8, ptr %84, i64 5
  %86 = load i8, ptr %85, align 1, !tbaa !19
  %87 = zext i8 %86 to i64
  %88 = shl i64 %87, 40
  %89 = load ptr, ptr %5, align 8, !tbaa !3
  %90 = getelementptr inbounds nuw %struct.BIT_DStream_t, ptr %89, i32 0, i32 0
  %91 = load i64, ptr %90, align 8, !tbaa !78
  %92 = add i64 %91, %88
  store i64 %92, ptr %90, align 8, !tbaa !78
  br label %93

93:                                               ; preds = %52, %81
  %94 = load ptr, ptr %5, align 8, !tbaa !3
  %95 = getelementptr inbounds nuw %struct.BIT_DStream_t, ptr %94, i32 0, i32 3
  %96 = load ptr, ptr %95, align 8, !tbaa !76
  %97 = getelementptr inbounds i8, ptr %96, i64 4
  %98 = load i8, ptr %97, align 1, !tbaa !19
  %99 = zext i8 %98 to i64
  %100 = shl i64 %99, 32
  %101 = load ptr, ptr %5, align 8, !tbaa !3
  %102 = getelementptr inbounds nuw %struct.BIT_DStream_t, ptr %101, i32 0, i32 0
  %103 = load i64, ptr %102, align 8, !tbaa !78
  %104 = add i64 %103, %100
  store i64 %104, ptr %102, align 8, !tbaa !78
  br label %105

105:                                              ; preds = %52, %93
  %106 = load ptr, ptr %5, align 8, !tbaa !3
  %107 = getelementptr inbounds nuw %struct.BIT_DStream_t, ptr %106, i32 0, i32 3
  %108 = load ptr, ptr %107, align 8, !tbaa !76
  %109 = getelementptr inbounds i8, ptr %108, i64 3
  %110 = load i8, ptr %109, align 1, !tbaa !19
  %111 = zext i8 %110 to i64
  %112 = shl i64 %111, 24
  %113 = load ptr, ptr %5, align 8, !tbaa !3
  %114 = getelementptr inbounds nuw %struct.BIT_DStream_t, ptr %113, i32 0, i32 0
  %115 = load i64, ptr %114, align 8, !tbaa !78
  %116 = add i64 %115, %112
  store i64 %116, ptr %114, align 8, !tbaa !78
  br label %117

117:                                              ; preds = %52, %105
  %118 = load ptr, ptr %5, align 8, !tbaa !3
  %119 = getelementptr inbounds nuw %struct.BIT_DStream_t, ptr %118, i32 0, i32 3
  %120 = load ptr, ptr %119, align 8, !tbaa !76
  %121 = getelementptr inbounds i8, ptr %120, i64 2
  %122 = load i8, ptr %121, align 1, !tbaa !19
  %123 = zext i8 %122 to i64
  %124 = shl i64 %123, 16
  %125 = load ptr, ptr %5, align 8, !tbaa !3
  %126 = getelementptr inbounds nuw %struct.BIT_DStream_t, ptr %125, i32 0, i32 0
  %127 = load i64, ptr %126, align 8, !tbaa !78
  %128 = add i64 %127, %124
  store i64 %128, ptr %126, align 8, !tbaa !78
  br label %129

129:                                              ; preds = %52, %117
  %130 = load ptr, ptr %5, align 8, !tbaa !3
  %131 = getelementptr inbounds nuw %struct.BIT_DStream_t, ptr %130, i32 0, i32 3
  %132 = load ptr, ptr %131, align 8, !tbaa !76
  %133 = getelementptr inbounds i8, ptr %132, i64 1
  %134 = load i8, ptr %133, align 1, !tbaa !19
  %135 = zext i8 %134 to i64
  %136 = shl i64 %135, 8
  %137 = load ptr, ptr %5, align 8, !tbaa !3
  %138 = getelementptr inbounds nuw %struct.BIT_DStream_t, ptr %137, i32 0, i32 0
  %139 = load i64, ptr %138, align 8, !tbaa !78
  %140 = add i64 %139, %136
  store i64 %140, ptr %138, align 8, !tbaa !78
  br label %141

141:                                              ; preds = %52, %129
  br label %142

142:                                              ; preds = %141
  %143 = load ptr, ptr %6, align 8, !tbaa !3
  %144 = load i64, ptr %7, align 8, !tbaa !7
  %145 = sub i64 %144, 1
  %146 = getelementptr inbounds nuw i8, ptr %143, i64 %145
  %147 = load i8, ptr %146, align 1, !tbaa !19
  %148 = zext i8 %147 to i32
  store i32 %148, ptr %10, align 4, !tbaa !15
  %149 = load i32, ptr %10, align 4, !tbaa !15
  %150 = icmp eq i32 %149, 0
  br i1 %150, label %151, label %152

151:                                              ; preds = %142
  store i64 -1, ptr %4, align 8
  store i32 1, ptr %9, align 4
  br label %166

152:                                              ; preds = %142
  %153 = load i32, ptr %10, align 4, !tbaa !15
  %154 = call i32 @BIT_highbit32(i32 noundef %153)
  %155 = sub i32 8, %154
  %156 = load ptr, ptr %5, align 8, !tbaa !3
  %157 = getelementptr inbounds nuw %struct.BIT_DStream_t, ptr %156, i32 0, i32 1
  store i32 %155, ptr %157, align 8, !tbaa !79
  %158 = load i64, ptr %7, align 8, !tbaa !7
  %159 = sub i64 8, %158
  %160 = trunc i64 %159 to i32
  %161 = mul i32 %160, 8
  %162 = load ptr, ptr %5, align 8, !tbaa !3
  %163 = getelementptr inbounds nuw %struct.BIT_DStream_t, ptr %162, i32 0, i32 1
  %164 = load i32, ptr %163, align 8, !tbaa !79
  %165 = add i32 %164, %161
  store i32 %165, ptr %163, align 8, !tbaa !79
  store i32 0, ptr %9, align 4
  br label %166

166:                                              ; preds = %152, %151
  call void @llvm.lifetime.end.p0(i64 4, ptr %10) #9
  %167 = load i32, ptr %9, align 4
  switch i32 %167, label %173 [
    i32 0, label %168
    i32 1, label %171
  ]

168:                                              ; preds = %166
  br label %169

169:                                              ; preds = %168, %51
  %170 = load i64, ptr %7, align 8, !tbaa !7
  store i64 %170, ptr %4, align 8
  br label %171

171:                                              ; preds = %169, %166, %49, %13
  %172 = load i64, ptr %4, align 8
  ret i64 %172

173:                                              ; preds = %166, %49
  unreachable
}